; ModuleID = 'source-C-CXX/44/1376.c'
source_filename = "source-C-CXX/44/1376.c"
target datalayout = "e-m:e-p270:32:32-p271:32:32-p272:64:64-i64:64-f80:128-n8:16:32:64-S128"
target triple = "x86_64-pc-linux-gnu"

@.str = private unnamed_addr constant [6 x i8] c"%s %s\00", align 1
@.str.1 = private unnamed_addr constant [3 x i8] c"%d\00", align 1

; Function Attrs: nofree nounwind sspstrong uwtable
define dso_local i32 @main() local_unnamed_addr #0 {
  %1 = alloca [100 x i8], align 16
  %2 = alloca [100 x i8], align 16
  %3 = getelementptr inbounds [100 x i8], [100 x i8]* %1, i64 0, i64 0
  call void @llvm.lifetime.start.p0i8(i64 100, i8* nonnull %3) #4
  %4 = getelementptr inbounds [100 x i8], [100 x i8]* %2, i64 0, i64 0
  call void @llvm.lifetime.start.p0i8(i64 100, i8* nonnull %4) #4
  %5 = call i32 (i8*, ...) @__isoc99_scanf(i8* getelementptr inbounds ([6 x i8], [6 x i8]* @.str, i64 0, i64 0), i8* nonnull %3, i8* nonnull %4)
  %6 = call i64 @strlen(i8* noundef nonnull %3) #5
  %7 = trunc i64 %6 to i32
  %8 = call i64 @strlen(i8* noundef nonnull %4) #5
  %9 = trunc i64 %8 to i32
  %10 = load i8, i8* %3, align 16
  %11 = add i32 %7, -1
  %12 = icmp sgt i32 %9, 0
  br i1 %12, label %13, label %52

13:                                               ; preds = %0
  %14 = icmp sgt i32 %7, 1
  br i1 %14, label %15, label %45

15:                                               ; preds = %13
  %16 = and i64 %8, 4294967295
  %17 = and i64 %6, 4294967295
  br label %18

18:                                               ; preds = %15, %38
  %19 = phi i64 [ 0, %15 ], [ %39, %38 ]
  %20 = phi i32 [ 0, %15 ], [ %36, %38 ]
  %21 = getelementptr inbounds [100 x i8], [100 x i8]* %2, i64 0, i64 %19
  %22 = load i8, i8* %21, align 1, !tbaa !5
  %23 = icmp eq i8 %10, %22
  br i1 %23, label %24, label %35

24:                                               ; preds = %18
  %25 = add i32 %11, %20
  br label %26

26:                                               ; preds = %24, %41
  %27 = phi i64 [ 1, %24 ], [ %43, %41 ]
  %28 = phi i32 [ %20, %24 ], [ %42, %41 ]
  %29 = getelementptr inbounds [100 x i8], [100 x i8]* %1, i64 0, i64 %27
  %30 = load i8, i8* %29, align 1, !tbaa !5
  %31 = add nuw nsw i64 %27, %19
  %32 = getelementptr inbounds [100 x i8], [100 x i8]* %2, i64 0, i64 %31
  %33 = load i8, i8* %32, align 1, !tbaa !5
  %34 = icmp eq i8 %30, %33
  br i1 %34, label %41, label %35

35:                                               ; preds = %41, %26, %18
  %36 = phi i32 [ %20, %18 ], [ %28, %26 ], [ %25, %41 ]
  %37 = icmp eq i32 %36, %11
  br i1 %37, label %47, label %38

38:                                               ; preds = %35
  %39 = add nuw nsw i64 %19, 1
  %40 = icmp eq i64 %39, %16
  br i1 %40, label %52, label %18, !llvm.loop !8

41:                                               ; preds = %26
  %42 = add nsw i32 %28, 1
  %43 = add nuw nsw i64 %27, 1
  %44 = icmp eq i64 %43, %17
  br i1 %44, label %35, label %26, !llvm.loop !10

45:                                               ; preds = %13
  %46 = icmp eq i32 %11, 0
  br i1 %46, label %49, label %52

47:                                               ; preds = %35
  %48 = trunc i64 %19 to i32
  br label %49

49:                                               ; preds = %45, %47
  %50 = phi i32 [ %48, %47 ], [ 0, %45 ]
  %51 = call i32 (i8*, ...) @printf(i8* nonnull dereferenceable(1) getelementptr inbounds ([3 x i8], [3 x i8]* @.str.1, i64 0, i64 0), i32 %50)
  br label %52

52:                                               ; preds = %38, %45, %0, %49
  call void @llvm.lifetime.end.p0i8(i64 100, i8* nonnull %4) #4
  call void @llvm.lifetime.end.p0i8(i64 100, i8* nonnull %3) #4
  ret i32 0
}

; Function Attrs: argmemonly mustprogress nofree nosync nounwind willreturn
declare void @llvm.lifetime.start.p0i8(i64 immarg, i8* nocapture) #1

; Function Attrs: nofree nounwind
declare noundef i32 @__isoc99_scanf(i8* nocapture noundef readonly, ...) local_unnamed_addr #2

; Function Attrs: argmemonly mustprogress nofree nounwind readonly willreturn
declare i64 @strlen(i8* nocapture) local_unnamed_addr #3

; Function Attrs: nofree nounwind
declare noundef i32 @printf(i8* nocapture noundef readonly, ...) local_unnamed_addr #2

; Function Attrs: argmemonly mustprogress nofree nosync nounwind willreturn
declare void @llvm.lifetime.end.p0i8(i64 immarg, i8* nocapture) #1


!llvm.module.flags = !{!0, !1, !2, !3}
!llvm.ident = !{!4}

!0 = !{i32 1, !"wchar_size", i32 4}
!1 = !{i32 7, !"PIC Level", i32 2}
!2 = !{i32 7, !"PIE Level", i32 2}
!3 = !{i32 7, !"uwtable", i32 1}
!4 = !{!"clang version 13.0.0"}
!5 = !{!6, !6, i64 0}
!6 = !{!"omnipotent char", !7, i64 0}
!7 = !{!"Simple C/C++ TBAA"}
!8 = distinct !{!8, !9}
!9 = !{!"llvm.loop.mustprogress"}
!10 = distinct !{!10, !9}
